; Function Attrs: nounwind uwtable
define ptr @l_Lean_Elab_addDeclarationRangesFromSyntax___rarg___lambda__1___boxed(ptr noundef %0, ptr noundef %1) #0 {
  %3 = ptrtoint ptr %1 to i64
  %4 = and i64 %3, 1
  %.not.i.i = icmp eq i64 %4, 0
  br i1 %.not.i.i, label %8, label %5

5:                                                ; preds = %2
  %6 = lshr i64 %3, 1
  %7 = trunc i64 %6 to i32
  br label %lean_obj_tag.exit.i

8:                                                ; preds = %2
  %9 = getelementptr i8, ptr %1, i64 4
  %.val.i.i = load i32, ptr %9, align 4
  %10 = lshr i32 %.val.i.i, 24
  br label %lean_obj_tag.exit.i

lean_obj_tag.exit.i:                              ; preds = %8, %5
  %.0.i.i = phi i32 [ %7, %5 ], [ %10, %8 ]
  %11 = icmp eq i32 %.0.i.i, 0
  br i1 %11, label %12, label %21

12:                                               ; preds = %lean_obj_tag.exit.i
  %13 = ptrtoint ptr %0 to i64
  %14 = and i64 %13, 1
  %.not13.i = icmp eq i64 %14, 0
  br i1 %.not13.i, label %15, label %l_Lean_Elab_addDeclarationRangesFromSyntax___rarg___lambda__1.exit

15:                                               ; preds = %12
  %.val.i8.i = load i32, ptr %0, align 4, !tbaa !8
  %16 = icmp sgt i32 %.val.i8.i, 0
  br i1 %16, label %17, label %19, !prof !11

17:                                               ; preds = %15
  %18 = add nuw i32 %.val.i8.i, 1
  store i32 %18, ptr %0, align 4, !tbaa !8
  br label %l_Lean_Elab_addDeclarationRangesFromSyntax___rarg___lambda__1.exit

19:                                               ; preds = %15
  %.not.i9.i = icmp eq i32 %.val.i8.i, 0
  br i1 %.not.i9.i, label %l_Lean_Elab_addDeclarationRangesFromSyntax___rarg___lambda__1.exit, label %20

20:                                               ; preds = %19
  tail call void @lean_inc_ref_cold(ptr noundef nonnull %0) #3
  br label %l_Lean_Elab_addDeclarationRangesFromSyntax___rarg___lambda__1.exit

21:                                               ; preds = %lean_obj_tag.exit.i
  %22 = getelementptr inbounds nuw i8, ptr %1, i64 8
  %23 = load ptr, ptr %22, align 8, !tbaa !4
  %24 = ptrtoint ptr %23 to i64
  %25 = and i64 %24, 1
  %.not.i8 = icmp eq i64 %25, 0
  br i1 %.not.i8, label %26, label %l_Lean_Elab_addDeclarationRangesFromSyntax___rarg___lambda__1.exit

26:                                               ; preds = %21
  %.val.i10.i = load i32, ptr %23, align 4, !tbaa !8
  %27 = icmp sgt i32 %.val.i10.i, 0
  br i1 %27, label %28, label %30, !prof !11

28:                                               ; preds = %26
  %29 = add nuw i32 %.val.i10.i, 1
  store i32 %29, ptr %23, align 4, !tbaa !8
  br label %l_Lean_Elab_addDeclarationRangesFromSyntax___rarg___lambda__1.exit

30:                                               ; preds = %26
  %.not.i11.i = icmp eq i32 %.val.i10.i, 0
  br i1 %.not.i11.i, label %l_Lean_Elab_addDeclarationRangesFromSyntax___rarg___lambda__1.exit, label %31

31:                                               ; preds = %30
  tail call void @lean_inc_ref_cold(ptr noundef nonnull %23) #3
  br label %l_Lean_Elab_addDeclarationRangesFromSyntax___rarg___lambda__1.exit

l_Lean_Elab_addDeclarationRangesFromSyntax___rarg___lambda__1.exit: ; preds = %12, %17, %19, %20, %21, %28, %30, %31
  %.0.i = phi ptr [ %0, %20 ], [ %0, %19 ], [ %0, %17 ], [ %0, %12 ], [ %23, %31 ], [ %23, %30 ], [ %23, %28 ], [ %23, %21 ]
  br i1 %.not.i.i, label %32, label %lean_dec.exit5

32:                                               ; preds = %l_Lean_Elab_addDeclarationRangesFromSyntax___rarg___lambda__1.exit
  %33 = load i32, ptr %1, align 4, !tbaa !8
  %34 = icmp sgt i32 %33, 1
  br i1 %34, label %35, label %37, !prof !11

35:                                               ; preds = %32
  %36 = add nsw i32 %33, -1
  store i32 %36, ptr %1, align 4, !tbaa !8
  br label %lean_dec.exit5

37:                                               ; preds = %32
  %.not.i = icmp eq i32 %33, 0
  br i1 %.not.i, label %lean_dec.exit5, label %38

38:                                               ; preds = %37
  tail call void @lean_dec_ref_cold(ptr noundef nonnull %1) #3
  br label %lean_dec.exit5

lean_dec.exit5:                                   ; preds = %38, %37, %35, %l_Lean_Elab_addDeclarationRangesFromSyntax___rarg___lambda__1.exit
  %39 = ptrtoint ptr %0 to i64
  %40 = and i64 %39, 1
  %.not9 = icmp eq i64 %40, 0
  br i1 %.not9, label %41, label %lean_dec.exit

41:                                               ; preds = %lean_dec.exit5
  %42 = load i32, ptr %0, align 4, !tbaa !8
  %43 = icmp sgt i32 %42, 1
  br i1 %43, label %44, label %46, !prof !11

44:                                               ; preds = %41
  %45 = add nsw i32 %42, -1
  store i32 %45, ptr %0, align 4, !tbaa !8
  br label %lean_dec.exit

46:                                               ; preds = %41
  %.not.i6 = icmp eq i32 %42, 0
  br i1 %.not.i6, label %lean_dec.exit, label %47

47:                                               ; preds = %46
  tail call void @lean_dec_ref_cold(ptr noundef nonnull %0) #3
  br label %lean_dec.exit

lean_dec.exit:                                    ; preds = %47, %46, %44, %lean_dec.exit5
  ret ptr %.0.i
}